target datalayout = "e-m:e-p270:32:32-p271:32:32-p272:64:64-i64:64-i128:128-f80:128-n8:16:32:64-S128"
target triple = "x86_64-unknown-linux-gnu"

%struct.QEMUTimer = type { i64, ptr, ptr, ptr, ptr, i32, i32 }

; Function Attrs: nounwind sspstrong uwtable
define dso_local void @timer_mod(ptr noundef %ts, i64 noundef %expire_time) #0 {
entry:
  %ts.addr = alloca ptr, align 8
  %expire_time.addr = alloca i64, align 8
  store ptr %ts, ptr %ts.addr, align 8
  store i64 %expire_time, ptr %expire_time.addr, align 8
  %0 = load ptr, ptr %ts.addr, align 8
  %1 = load i64, ptr %expire_time.addr, align 8
  %2 = load ptr, ptr %ts.addr, align 8
  %scale = getelementptr inbounds %struct.QEMUTimer, ptr %2, i32 0, i32 6
  %3 = load i32, ptr %scale, align 4
  %conv = sext i32 %3 to i64
  %mul = mul i64 %1, %conv
  call void @timer_mod_ns(ptr noundef %0, i64 noundef %mul)
  ret void
}